(dp1
S'output'
p2
S"<type 'exceptions.NameError'> name 'calcHours' is not defined"
p3
sS'layer'
p4
S'/home/evancaldwell/web2py/applications/SIRI_Time_Clock/models/db.py'
p5
sS'code'
p6
S"# -*- coding: utf-8 -*-\n\n#########################################################################\n## This scaffolding model makes your app work on Google App Engine too\n## File is released under public domain and you can use without limitations\n#########################################################################\n\n## if SSL/HTTPS is properly configured and you want all HTTP requests to\n## be redirected to HTTPS, uncomment the line below:\n# request.requires_https()\n\nif not request.env.web2py_runtime_gae:\n    ## if NOT running on Google App Engine use SQLite or other DB\n    db = DAL('sqlite://storage.sqlite',pool_size=1,check_reserved=['all'])\nelse:\n    ## connect to Google BigTable (optional 'google:datastore://namespace')\n    db = DAL('google:datastore')\n    ## store sessions and tickets there\n    session.connect(request, response, db=db)\n    ## or store session in Memcache, Redis, etc.\n    ## from gluon.contrib.memdb import MEMDB\n    ## from google.appengine.api.memcache import Client\n    ## session.connect(request, response, db = MEMDB(Client()))\n\n## by default give a view/generic.extension to all actions from localhost\n## none otherwise. a pattern can be 'controller/function.extension'\nresponse.generic_patterns = ['*'] if request.is_local else []\n## (optional) optimize handling of static files\n# response.optimize_css = 'concat,minify,inline'\n# response.optimize_js = 'concat,minify,inline'\n\n#########################################################################\n## Here is sample code if you need for\n## - email capabilities\n## - authentication (registration, login, logout, ... )\n## - authorization (role based authorization)\n## - services (xml, csv, json, xmlrpc, jsonrpc, amf, rss)\n## - old style crud actions\n## (more options discussed in gluon/tools.py)\n#########################################################################\n\nimport datetime\nfrom gluon.tools import Auth, Crud, Service, PluginManager, prettydate\nauth = Auth(db)\ncrud, service, plugins = Crud(db), Service(), PluginManager()\n\n## create all tables needed by auth if not custom tables\nauth.define_tables(username=False, signature=False)\n\n## configure email\nmail = auth.settings.mailer\nmail.settings.server = 'logging' or 'smtp.gmail.com:587'\nmail.settings.sender = 'you@gmail.com'\nmail.settings.login = 'username:password'\n\n## configure auth policy\nauth.settings.registration_requires_verification = False\nauth.settings.registration_requires_approval = False\nauth.settings.reset_password_requires_verification = True\n\n## if you need to use OpenID, Facebook, MySpace, Twitter, Linkedin, etc.\n## register with janrain.com, write your domain:api_key in private/janrain.key\nfrom gluon.contrib.login_methods.rpx_account import use_janrain\nuse_janrain(auth, filename='private/janrain.key')\n\n#########################################################################\n## Define your tables below (or better in another model file) for example\n##\n## >>> db.define_table('mytable',Field('myfield','string'))\n##\n## Fields can be 'string','text','password','integer','double','boolean'\n##       'date','time','datetime','blob','upload', 'reference TABLENAME'\n## There is an implicit 'id integer autoincrement' field\n## Consult manual for more options, validators, etc.\n##\n## More API examples for controllers:\n##\n## >>> db.mytable.insert(myfield='value')\n## >>> rows=db(db.mytable.myfield=='value').select(db.mytable.ALL)\n## >>> for row in rows: print row.id, row.myfield\n#########################################################################\n\ndb.define_table('timeclock',\nField('project','string',required=True),\nField('work_date','date',required=True),\nField('time_in','time',required=True),\nField('time_out','time',required=True),\nField('description', 'text', required=True),\nField('hours','double'),\nField('usr_id','reference auth_user')\n)\ndb.timeclock.project.requires = IS_IN_SET(['DDM','SRA','Scan Inc.','FamilySearch','Aaron Turner'])\ndb.timeclock.work_date.requires = IS_NOT_EMPTY()\ndb.timeclock.time_in.requires = IS_NOT_EMPTY()\ndb.timeclock.time_out.requires = IS_NOT_EMPTY()\ndb.timeclock.description.requires = IS_NOT_EMPTY()\ndb.timeclock.hours.writable = db.timeclock.hours.readable = False\ndb.timeclock.usr_id.writable = db.timeclock.usr_id.readable = False\nif auth.is_logged_in():\n    db.timeclock.usr_id.default=auth.user.id\nhoursTest = calcHours(db.timeclock.time_in, db.timeclock.time_out)\ndb.timeclock.hours.default=hoursTest\n\ndb.define_table('fs_students',\nField('usr_id','reference auth_user'),\nField('opp_location','string',required=True),\nField('internship','boolean'),\nField('confirmed','boolean'),\nField('paid','boolean'),\nField('airfare_purchased','boolean'),\nField('housing_conf','boolean'),\nField('training_hotel','boolean'),\nField('training_hotel_resrv','boolean'),\nField('training_start','date'),\nField('training_end','date'),\nField('depart_date','date'),\nField('return_date','date'),\nField('work_start','date'),\nField('work_end','date'),\nField('birthday','date'),\nField('emergency_name','string'),\nField('emergency_phone','string'),\nField('archive','boolean')\n)\ndb.fs_students.opp_location.requires = IS_IN_SET(['Madrid', 'Dominican Republic', 'Montreal'])\n\ndb.define_table('fs_prospects',\nField('usr_id','reference auth_user'),\nField('candidate','boolean'),\nField('interested_location','string'),\nField('interested_dates','string'),\nField('speak_language','string'),\nField('language_level','integer'),  #**** how do I max it @ 5\nField('referred_by','string'),  #**** how do I make it an option list\nField('resume','upload')\n)\ndb.fs_prospects.interested_location.requires = IS_IN_SET(['Madrid', 'Dominican Republic', 'Montreal','New Hampshire'])\ndb.fs_prospects.speak_language.requires = IS_IN_SET(['Spanish', 'French', 'Other'])\ndb.fs_prospects.language_level.requires = IS_IN_SET(['1 - Beginner', '2 - I know a few phrases', '3 - I can get by on my own', '4 - I am conversational', '5 - Native/Fluent'])\ndb.fs_prospects.referred_by.requires = IS_IN_SET(['International Studies Instructor', 'Language Instructor', 'University Email', 'Know someone who went to a meeting', 'Know someone who participated', 'Found the website'])\n\n## after defining tables, uncomment below to enable auditing\nauth.enable_record_versioning(db)\n"
p7
sS'snapshot'
p8
(dp9
S'exception'
p10
(dp11
S'__hash__'
p12
S"<method-wrapper '__hash__' of exceptions.NameError object>"
p13
sS'__setattr__'
p14
S"<method-wrapper '__setattr__' of exceptions.NameError object>"
p15
sS'__reduce_ex__'
p16
S'<built-in method __reduce_ex__ of exceptions.NameError object>'
p17
sS'__getslice__'
p18
S"<method-wrapper '__getslice__' of exceptions.NameError object>"
p19
sS'__getitem__'
p20
S"<method-wrapper '__getitem__' of exceptions.NameError object>"
p21
sS'__setstate__'
p22
S'<built-in method __setstate__ of exceptions.NameError object>'
p23
sS'args'
p24
S'("name \'calcHours\' is not defined",)'
p25
sS'__reduce__'
p26
S'<built-in method __reduce__ of exceptions.NameError object>'
p27
sS'__str__'
p28
S"<method-wrapper '__str__' of exceptions.NameError object>"
p29
sS'__format__'
p30
S'<built-in method __format__ of exceptions.NameError object>'
p31
sS'__getattribute__'
p32
S"<method-wrapper '__getattribute__' of exceptions.NameError object>"
p33
sS'__class__'
p34
S"<type 'exceptions.NameError'>"
p35
sS'__unicode__'
p36
S'<built-in method __unicode__ of exceptions.NameError object>'
p37
sS'__delattr__'
p38
S"<method-wrapper '__delattr__' of exceptions.NameError object>"
p39
sS'__subclasshook__'
p40
S'<built-in method __subclasshook__ of type object>'
p41
sS'__repr__'
p42
S"<method-wrapper '__repr__' of exceptions.NameError object>"
p43
sS'__dict__'
p44
S'{}'
p45
sS'__sizeof__'
p46
S'<built-in method __sizeof__ of exceptions.NameError object>'
p47
sS'__doc__'
p48
S"'Name not found globally.'"
p49
sS'__init__'
p50
S"<method-wrapper '__init__' of exceptions.NameError object>"
p51
sS'__new__'
p52
S'<built-in method __new__ of type object>'
p53
ssS'evalue'
p54
S"name 'calcHours' is not defined"
p55
sS'request'
p56
cgluon.html
XML_unpickle
p57
(S'sDW\x00\x00<div><table><tr><td style="font-weight:bold;vertical-align:top">ajax</td><td valign="top">:</td><td><div>False</div></td></tr><tr><td style="font-weight:bold;vertical-align:top">application</td><td valign="top">:</td><td><div>SIRI_Time_Clock</div></td></tr><tr><td style="font-weight:bold;vertical-align:top">args</td><td valign="top">:</td><td><div><table></table></div></td></tr><tr><td style="font-weight:bold;vertical-align:top">body</td><td valign="top">:</td><td><div>&lt;open file &#x27;&lt;fdopen&gt;&#x27;, mode &#x27;w+b&#x27; at 0x46bf150&gt;</div></td></tr><tr><td style="font-weight:bold;vertical-align:top">cid</td><td valign="top">:</td><td><div>None</div></td></tr><tr><td style="font-weight:bold;vertical-align:top">client</td><td valign="top">:</td><td><div>192.225.182.66</div></td></tr><tr><td style="font-weight:bold;vertical-align:top">controller</td><td valign="top">:</td><td><div>default</div></td></tr><tr><td style="font-weight:bold;vertical-align:top">cookies</td><td valign="top">:</td><td><div><table><tr><td style="font-weight:bold;vertical-align:top">session_id_admin</td><td valign="top">:</td><td><div>192.225.182.66-b47d3524-735e-4af5-a9f7-5e02c1b8a647<table><tr><td style="font-weight:bold;vertical-align:top">comment</td><td valign="top">:</td><td><div></div></td></tr><tr><td style="font-weight:bold;vertical-align:top">domain</td><td valign="top">:</td><td><div></div></td></tr><tr><td style="font-weight:bold;vertical-align:top">expires</td><td valign="top">:</td><td><div></div></td></tr><tr><td style="font-weight:bold;vertical-align:top">httponly</td><td valign="top">:</td><td><div></div></td></tr><tr><td style="font-weight:bold;vertical-align:top">max-age</td><td valign="top">:</td><td><div></div></td></tr><tr><td style="font-weight:bold;vertical-align:top">path</td><td valign="top">:</td><td><div></div></td></tr><tr><td style="font-weight:bold;vertical-align:top">secure</td><td valign="top">:</td><td><div></div></td></tr><tr><td style="font-weight:bold;vertical-align:top">version</td><td valign="top">:</td><td><div></div></td></tr></table></div></td></tr><tr><td style="font-weight:bold;vertical-align:top">session_id_siri_time_clock</td><td valign="top">:</td><td><div>192.225.182.66-f65f377f-77f3-4115-9cb5-95e12585d95b<table><tr><td style="font-weight:bold;vertical-align:top">comment</td><td valign="top">:</td><td><div></div></td></tr><tr><td style="font-weight:bold;vertical-align:top">domain</td><td valign="top">:</td><td><div></div></td></tr><tr><td style="font-weight:bold;vertical-align:top">expires</td><td valign="top">:</td><td><div></div></td></tr><tr><td style="font-weight:bold;vertical-align:top">httponly</td><td valign="top">:</td><td><div></div></td></tr><tr><td style="font-weight:bold;vertical-align:top">max-age</td><td valign="top">:</td><td><div></div></td></tr><tr><td style="font-weight:bold;vertical-align:top">path</td><td valign="top">:</td><td><div></div></td></tr><tr><td style="font-weight:bold;vertical-align:top">secure</td><td valign="top">:</td><td><div></div></td></tr><tr><td style="font-weight:bold;vertical-align:top">version</td><td valign="top">:</td><td><div></div></td></tr></table></div></td></tr><tr><td style="font-weight:bold;vertical-align:top">session_id_welcome</td><td valign="top">:</td><td><div>192.225.182.66-2d0e4531-4fe7-4c17-9116-ecd13d666710<table><tr><td style="font-weight:bold;vertical-align:top">comment</td><td valign="top">:</td><td><div></div></td></tr><tr><td style="font-weight:bold;vertical-align:top">domain</td><td valign="top">:</td><td><div></div></td></tr><tr><td style="font-weight:bold;vertical-align:top">expires</td><td valign="top">:</td><td><div></div></td></tr><tr><td style="font-weight:bold;vertical-align:top">httponly</td><td valign="top">:</td><td><div></div></td></tr><tr><td style="font-weight:bold;vertical-align:top">max-age</td><td valign="top">:</td><td><div></div></td></tr><tr><td style="font-weight:bold;vertical-align:top">path</td><td valign="top">:</td><td><div></div></td></tr><tr><td style="font-weight:bold;vertical-align:top">secure</td><td valign="top">:</td><td><div></div></td></tr><tr><td style="font-weight:bold;vertical-align:top">version</td><td valign="top">:</td><td><div></div></td></tr></table></div></td></tr></table></div></td></tr><tr><td style="font-weight:bold;vertical-align:top">env</td><td valign="top">:</td><td><div><table><tr><td style="font-weight:bold;vertical-align:top">app_folders</td><td valign="top">:</td><td><div>set([&#x27;/home/evancaldwell/web2py/applications/welcome/&#x27;, &#x27;/home/evancaldwell/web2py/applications/admin/&#x27;, &#x27;/home/evancaldwell/web2py/applications/SIRI_Time_Clock/&#x27;])</div></td></tr><tr><td style="font-weight:bold;vertical-align:top">applications_parent</td><td valign="top">:</td><td><div>/home/evancaldwell/web2py</div></td></tr><tr><td style="font-weight:bold;vertical-align:top">content_length</td><td valign="top">:</td><td><div>810</div></td></tr><tr><td style="font-weight:bold;vertical-align:top">content_type</td><td valign="top">:</td><td><div>multipart/form-data; boundary=----WebKitFormBoundaryjdXQmla9TSHoC1Xo</div></td></tr><tr><td style="font-weight:bold;vertical-align:top">db_sessions</td><td valign="top">:</td><td><div>set([])</div></td></tr><tr><td style="font-weight:bold;vertical-align:top">debugging</td><td valign="top">:</td><td><div>True</div></td></tr><tr><td style="font-weight:bold;vertical-align:top">document_root</td><td valign="top">:</td><td><div>/var/log/nginx/user_logs</div></td></tr><tr><td style="font-weight:bold;vertical-align:top">gluon_parent</td><td valign="top">:</td><td><div>/home/evancaldwell/web2py</div></td></tr><tr><td style="font-weight:bold;vertical-align:top">http_accept</td><td valign="top">:</td><td><div>text/html,application/xhtml+xml,application/xml;q=0.9,*/*;q=0.8</div></td></tr><tr><td style="font-weight:bold;vertical-align:top">http_accept_encoding</td><td valign="top">:</td><td><div>gzip,deflate,sdch</div></td></tr><tr><td style="font-weight:bold;vertical-align:top">http_accept_language</td><td valign="top">:</td><td><div>en-US,en;q=0.8</div></td></tr><tr><td style="font-weight:bold;vertical-align:top">http_cache_control</td><td valign="top">:</td><td><div>max-age=0</div></td></tr><tr><td style="font-weight:bold;vertical-align:top">http_connection</td><td valign="top">:</td><td><div>keep-alive</div></td></tr><tr><td style="font-weight:bold;vertical-align:top">http_content_length</td><td valign="top">:</td><td><div>810</div></td></tr><tr><td style="font-weight:bold;vertical-align:top">http_content_type</td><td valign="top">:</td><td><div>multipart/form-data; boundary=----WebKitFormBoundaryjdXQmla9TSHoC1Xo</div></td></tr><tr><td style="font-weight:bold;vertical-align:top">http_cookie</td><td valign="top">:</td><td><div>session_id_welcome=192.225.182.66-2d0e4531-4fe7-4c17-9116-ecd13d666710; session_id_siri_time_clock=192.225.182.66-f65f377f-77f3-4115-9cb5-95e12585d95b; session_id_admin=192.225.182.66-b47d3524-735e-4af5-a9f7-5e02c1b8a647</div></td></tr><tr><td style="font-weight:bold;vertical-align:top">http_host</td><td valign="top">:</td><td><div>evancaldwell.pythonanywhere.com</div></td></tr><tr><td style="font-weight:bold;vertical-align:top">http_origin</td><td valign="top">:</td><td><div>https://evancaldwell.pythonanywhere.com</div></td></tr><tr><td style="font-weight:bold;vertical-align:top">http_referer</td><td valign="top">:</td><td><div>https://evancaldwell.pythonanywhere.com/SIRI_Time_Clock/default/mainpage</div></td></tr><tr><td style="font-weight:bold;vertical-align:top">http_user_agent</td><td valign="top">:</td><td><div>Mozilla/5.0 (Windows NT 6.1; WOW64) AppleWebKit/537.36 (KHTML, like Gecko) Chrome/28.0.1500.95 Safari/537.36</div></td></tr><tr><td style="font-weight:bold;vertical-align:top">https</td><td valign="top">:</td><td><div>on</div></td></tr><tr><td style="font-weight:bold;vertical-align:top">is_jython</td><td valign="top">:</td><td><div>False</div></td></tr><tr><td style="font-weight:bold;vertical-align:top">is_pypy</td><td valign="top">:</td><td><div>False</div></td></tr><tr><td style="font-weight:bold;vertical-align:top">local_hosts</td><td valign="top">:</td><td><div><table><tr><td><div>evancaldwell.pythonanywhere.com</div></td></tr><tr><td><div>::ffff:127.0.0.1</div></td></tr><tr><td><div>::1</div></td></tr><tr><td><div>hansel-liveweb</div></td></tr><tr><td><div>50.19.109.98</div></td></tr><tr><td><div>localhost</div></td></tr><tr><td><div>127.0.0.1</div></td></tr></table></div></td></tr><tr><td style="font-weight:bold;vertical-align:top">path_info</td><td valign="top">:</td><td><div>/SIRI_Time_Clock/default/mainpage</div></td></tr><tr><td style="font-weight:bold;vertical-align:top">query_string</td><td valign="top">:</td><td><div></div></td></tr><tr><td style="font-weight:bold;vertical-align:top">remote_addr</td><td valign="top">:</td><td><div>192.225.182.66</div></td></tr><tr><td style="font-weight:bold;vertical-align:top">remote_port</td><td valign="top">:</td><td><div>32992</div></td></tr><tr><td style="font-weight:bold;vertical-align:top">request_method</td><td valign="top">:</td><td><div>POST</div></td></tr><tr><td style="font-weight:bold;vertical-align:top">request_uri</td><td valign="top">:</td><td><div>/SIRI_Time_Clock/default/mainpage</div></td></tr><tr><td style="font-weight:bold;vertical-align:top">script_name</td><td valign="top">:</td><td><div></div></td></tr><tr><td style="font-weight:bold;vertical-align:top">server_name</td><td valign="top">:</td><td><div>evancaldwell.pythonanywhere.com</div></td></tr><tr><td style="font-weight:bold;vertical-align:top">server_port</td><td valign="top">:</td><td><div>443</div></td></tr><tr><td style="font-weight:bold;vertical-align:top">server_protocol</td><td valign="top">:</td><td><div>HTTP/1.1</div></td></tr><tr><td style="font-weight:bold;vertical-align:top">uwsgi_node</td><td valign="top">:</td><td><div>hansel-liveweb</div></td></tr><tr><td style="font-weight:bold;vertical-align:top">uwsgi_version</td><td valign="top">:</td><td><div>1.9.13</div></td></tr><tr><td style="font-weight:bold;vertical-align:top">web2py_path</td><td valign="top">:</td><td><div>/home/evancaldwell/web2py</div></td></tr><tr><td style="font-weight:bold;vertical-align:top">web2py_version</td><td valign="top">:</td><td><div>2.5.1-stable+timestamp.2013.06.06.15.39.19</div></td></tr><tr><td style="font-weight:bold;vertical-align:top">wsgi_errors</td><td valign="top">:</td><td><div>&lt;uwsgi_file__bin_user_wsgi_wrapper.ErrorLogWrapper object at 0x3593ed0&gt;</div></td></tr><tr><td style="font-weight:bold;vertical-align:top">wsgi_file_wrapper</td><td valign="top">:</td><td><div>&lt;built-in function uwsgi_sendfile&gt;</div></td></tr><tr><td style="font-weight:bold;vertical-align:top">wsgi_input</td><td valign="top">:</td><td><div>&lt;uwsgi._Input object at 0x7f292613d648&gt;</div></td></tr><tr><td style="font-weight:bold;vertical-align:top">wsgi_multiprocess</td><td valign="top">:</td><td><div>False</div></td></tr><tr><td style="font-weight:bold;vertical-align:top">wsgi_multithread</td><td valign="top">:</td><td><div>False</div></td></tr><tr><td style="font-weight:bold;vertical-align:top">wsgi_run_once</td><td valign="top">:</td><td><div>False</div></td></tr><tr><td style="font-weight:bold;vertical-align:top">wsgi_url_scheme</td><td valign="top">:</td><td><div>https</div></td></tr><tr><td style="font-weight:bold;vertical-align:top">wsgi_version</td><td valign="top">:</td><td><div><table><tr><td><div>1</div></td></tr><tr><td><div>0</div></td></tr></table></div></td></tr></table></div></td></tr><tr><td style="font-weight:bold;vertical-align:top">extension</td><td valign="top">:</td><td><div>html</div></td></tr><tr><td style="font-weight:bold;vertical-align:top">folder</td><td valign="top">:</td><td><div>/home/evancaldwell/web2py/applications/SIRI_Time_Clock/</div></td></tr><tr><td style="font-weight:bold;vertical-align:top">function</td><td valign="top">:</td><td><div>mainpage</div></td></tr><tr><td style="font-weight:bold;vertical-align:top">get_vars</td><td valign="top">:</td><td><div><table></table></div></td></tr><tr><td style="font-weight:bold;vertical-align:top">global_settings</td><td valign="top">:</td><td><div><table><tr><td style="font-weight:bold;vertical-align:top">app_folders</td><td valign="top">:</td><td><div>set([&#x27;/home/evancaldwell/web2py/applications/welcome/&#x27;, &#x27;/home/evancaldwell/web2py/applications/admin/&#x27;, &#x27;/home/evancaldwell/web2py/applications/SIRI_Time_Clock/&#x27;])</div></td></tr><tr><td style="font-weight:bold;vertical-align:top">applications_parent</td><td valign="top">:</td><td><div>/home/evancaldwell/web2py</div></td></tr><tr><td style="font-weight:bold;vertical-align:top">db_sessions</td><td valign="top">:</td><td><div>set([])</div></td></tr><tr><td style="font-weight:bold;vertical-align:top">debugging</td><td valign="top">:</td><td><div>True</div></td></tr><tr><td style="font-weight:bold;vertical-align:top">gluon_parent</td><td valign="top">:</td><td><div>/home/evancaldwell/web2py</div></td></tr><tr><td style="font-weight:bold;vertical-align:top">is_jython</td><td valign="top">:</td><td><div>False</div></td></tr><tr><td style="font-weight:bold;vertical-align:top">is_pypy</td><td valign="top">:</td><td><div>False</div></td></tr><tr><td style="font-weight:bold;vertical-align:top">local_hosts</td><td valign="top">:</td><td><div><table><tr><td><div>evancaldwell.pythonanywhere.com</div></td></tr><tr><td><div>::ffff:127.0.0.1</div></td></tr><tr><td><div>::1</div></td></tr><tr><td><div>hansel-liveweb</div></td></tr><tr><td><div>50.19.109.98</div></td></tr><tr><td><div>localhost</div></td></tr><tr><td><div>127.0.0.1</div></td></tr></table></div></td></tr><tr><td style="font-weight:bold;vertical-align:top">web2py_version</td><td valign="top">:</td><td><div>2.5.1-stable+timestamp.2013.06.06.15.39.19</div></td></tr></table></div></td></tr><tr><td style="font-weight:bold;vertical-align:top">is_https</td><td valign="top">:</td><td><div>True</div></td></tr><tr><td style="font-weight:bold;vertical-align:top">is_local</td><td valign="top">:</td><td><div>False</div></td></tr><tr><td style="font-weight:bold;vertical-align:top">is_restful</td><td valign="top">:</td><td><div>False</div></td></tr><tr><td style="font-weight:bold;vertical-align:top">now</td><td valign="top">:</td><td><div>datetime.datetime(2013, 8, 9, 18, 59, 26, 690912)</div></td></tr><tr><td style="font-weight:bold;vertical-align:top">post_vars</td><td valign="top">:</td><td><div><table><tr><td style="font-weight:bold;vertical-align:top">description</td><td valign="top">:</td><td><div>testing calcHours</div></td></tr><tr><td style="font-weight:bold;vertical-align:top">project</td><td valign="top">:</td><td><div>DDM</div></td></tr><tr><td style="font-weight:bold;vertical-align:top">time_in</td><td valign="top">:</td><td><div>10:30:30</div></td></tr><tr><td style="font-weight:bold;vertical-align:top">time_out</td><td valign="top">:</td><td><div>13:00:00</div></td></tr><tr><td style="font-weight:bold;vertical-align:top">work_date</td><td valign="top">:</td><td><div>2013-08-08</div></td></tr></table></div></td></tr><tr><td style="font-weight:bold;vertical-align:top">raw_args</td><td valign="top">:</td><td><div></div></td></tr><tr><td style="font-weight:bold;vertical-align:top">raw_extension</td><td valign="top">:</td><td><div>None</div></td></tr><tr><td style="font-weight:bold;vertical-align:top">url</td><td valign="top">:</td><td><div>/SIRI_Time_Clock/default/mainpage</div></td></tr><tr><td style="font-weight:bold;vertical-align:top">utcnow</td><td valign="top">:</td><td><div>datetime.datetime(2013, 8, 9, 18, 59, 26, 690935)</div></td></tr><tr><td style="font-weight:bold;vertical-align:top">uuid</td><td valign="top">:</td><td><div>SIRI_Time_Clock/192.225.182.66.2013-08-09.18-59-26.051fe3df-f79c-4c8e-b0d6-e8cfb473729b</div></td></tr><tr><td style="font-weight:bold;vertical-align:top">vars</td><td valign="top">:</td><td><div><table><tr><td style="font-weight:bold;vertical-align:top">description</td><td valign="top">:</td><td><div>testing calcHours</div></td></tr><tr><td style="font-weight:bold;vertical-align:top">project</td><td valign="top">:</td><td><div>DDM</div></td></tr><tr><td style="font-weight:bold;vertical-align:top">time_in</td><td valign="top">:</td><td><div>10:30:30</div></td></tr><tr><td style="font-weight:bold;vertical-align:top">time_out</td><td valign="top">:</td><td><div>13:00:00</div></td></tr><tr><td style="font-weight:bold;vertical-align:top">work_date</td><td valign="top">:</td><td><div>2013-08-08</div></td></tr></table></div></td></tr><tr><td style="font-weight:bold;vertical-align:top">wsgi</td><td valign="top">:</td><td><div><table><tr><td style="font-weight:bold;vertical-align:top">environ</td><td valign="top">:</td><td><div><table><tr><td style="font-weight:bold;vertical-align:top">CONTENT_LENGTH</td><td valign="top">:</td><td><div>810</div></td></tr><tr><td style="font-weight:bold;vertical-align:top">CONTENT_TYPE</td><td valign="top">:</td><td><div>multipart/form-data; boundary=----WebKitFormBoundaryjdXQmla9TSHoC1Xo</div></td></tr><tr><td style="font-weight:bold;vertical-align:top">DOCUMENT_ROOT</td><td valign="top">:</td><td><div>/var/log/nginx/user_logs</div></td></tr><tr><td style="font-weight:bold;vertical-align:top">HTTPS</td><td valign="top">:</td><td><div>on</div></td></tr><tr><td style="font-weight:bold;vertical-align:top">HTTP_ACCEPT</td><td valign="top">:</td><td><div>text/html,application/xhtml+xml,application/xml;q=0.9,*/*;q=0.8</div></td></tr><tr><td style="font-weight:bold;vertical-align:top">HTTP_ACCEPT_ENCODING</td><td valign="top">:</td><td><div>gzip,deflate,sdch</div></td></tr><tr><td style="font-weight:bold;vertical-align:top">HTTP_ACCEPT_LANGUAGE</td><td valign="top">:</td><td><div>en-US,en;q=0.8</div></td></tr><tr><td style="font-weight:bold;vertical-align:top">HTTP_CACHE_CONTROL</td><td valign="top">:</td><td><div>max-age=0</div></td></tr><tr><td style="font-weight:bold;vertical-align:top">HTTP_CONNECTION</td><td valign="top">:</td><td><div>keep-alive</div></td></tr><tr><td style="font-weight:bold;vertical-align:top">HTTP_CONTENT_LENGTH</td><td valign="top">:</td><td><div>810</div></td></tr><tr><td style="font-weight:bold;vertical-align:top">HTTP_CONTENT_TYPE</td><td valign="top">:</td><td><div>multipart/form-data; boundary=----WebKitFormBoundaryjdXQmla9TSHoC1Xo</div></td></tr><tr><td style="font-weight:bold;vertical-align:top">HTTP_COOKIE</td><td valign="top">:</td><td><div>session_id_welcome=192.225.182.66-2d0e4531-4fe7-4c17-9116-ecd13d666710; session_id_siri_time_clock=192.225.182.66-f65f377f-77f3-4115-9cb5-95e12585d95b; session_id_admin=192.225.182.66-b47d3524-735e-4af5-a9f7-5e02c1b8a647</div></td></tr><tr><td style="font-weight:bold;vertical-align:top">HTTP_HOST</td><td valign="top">:</td><td><div>evancaldwell.pythonanywhere.com</div></td></tr><tr><td style="font-weight:bold;vertical-align:top">HTTP_ORIGIN</td><td valign="top">:</td><td><div>https://evancaldwell.pythonanywhere.com</div></td></tr><tr><td style="font-weight:bold;vertical-align:top">HTTP_REFERER</td><td valign="top">:</td><td><div>https://evancaldwell.pythonanywhere.com/SIRI_Time_Clock/default/mainpage</div></td></tr><tr><td style="font-weight:bold;vertical-align:top">HTTP_USER_AGENT</td><td valign="top">:</td><td><div>Mozilla/5.0 (Windows NT 6.1; WOW64) AppleWebKit/537.36 (KHTML, like Gecko) Chrome/28.0.1500.95 Safari/537.36</div></td></tr><tr><td style="font-weight:bold;vertical-align:top">PATH_INFO</td><td valign="top">:</td><td><div>/SIRI_Time_Clock/default/mainpage</div></td></tr><tr><td style="font-weight:bold;vertical-align:top">QUERY_STRING</td><td valign="top">:</td><td><div></div></td></tr><tr><td style="font-weight:bold;vertical-align:top">REMOTE_ADDR</td><td valign="top">:</td><td><div>192.225.182.66</div></td></tr><tr><td style="font-weight:bold;vertical-align:top">REMOTE_PORT</td><td valign="top">:</td><td><div>32992</div></td></tr><tr><td style="font-weight:bold;vertical-align:top">REQUEST_METHOD</td><td valign="top">:</td><td><div>POST</div></td></tr><tr><td style="font-weight:bold;vertical-align:top">REQUEST_URI</td><td valign="top">:</td><td><div>/SIRI_Time_Clock/default/mainpage</div></td></tr><tr><td style="font-weight:bold;vertical-align:top">SCRIPT_NAME</td><td valign="top">:</td><td><div></div></td></tr><tr><td style="font-weight:bold;vertical-align:top">SERVER_NAME</td><td valign="top">:</td><td><div>evancaldwell.pythonanywhere.com</div></td></tr><tr><td style="font-weight:bold;vertical-align:top">SERVER_PORT</td><td valign="top">:</td><td><div>443</div></td></tr><tr><td style="font-weight:bold;vertical-align:top">SERVER_PROTOCOL</td><td valign="top">:</td><td><div>HTTP/1.1</div></td></tr><tr><td style="font-weight:bold;vertical-align:top">uwsgi.node</td><td valign="top">:</td><td><div>hansel-liveweb</div></td></tr><tr><td style="font-weight:bold;vertical-align:top">uwsgi.version</td><td valign="top">:</td><td><div>1.9.13</div></td></tr><tr><td style="font-weight:bold;vertical-align:top">wsgi.errors</td><td valign="top">:</td><td><div>&lt;uwsgi_file__bin_user_wsgi_wrapper.ErrorLogWrapper object at 0x3593ed0&gt;</div></td></tr><tr><td style="font-weight:bold;vertical-align:top">wsgi.file_wrapper</td><td valign="top">:</td><td><div>&lt;built-in function uwsgi_sendfile&gt;</div></td></tr><tr><td style="font-weight:bold;vertical-align:top">wsgi.input</td><td valign="top">:</td><td><div>&lt;open file &#x27;&lt;fdopen&gt;&#x27;, mode &#x27;w+b&#x27; at 0x46bf150&gt;</div></td></tr><tr><td style="font-weight:bold;vertical-align:top">wsgi.multiprocess</td><td valign="top">:</td><td><div>False</div></td></tr><tr><td style="font-weight:bold;vertical-align:top">wsgi.multithread</td><td valign="top">:</td><td><div>False</div></td></tr><tr><td style="font-weight:bold;vertical-align:top">wsgi.run_once</td><td valign="top">:</td><td><div>False</div></td></tr><tr><td style="font-weight:bold;vertical-align:top">wsgi.url_scheme</td><td valign="top">:</td><td><div>https</div></td></tr><tr><td style="font-weight:bold;vertical-align:top">wsgi.version</td><td valign="top">:</td><td><div>1</div></td></tr></table></div></td></tr></table></div></td></tr></table></div>'
tRp58
sS'frames'
p59
(lp60
(dp61
S'file'
p62
S'/home/evancaldwell/web2py/gluon/restricted.py'
p63
sS'dump'
p64
(dp65
S'environment'
p66
S"{'A': <class 'gluon.html.A'>, 'ANY_OF': <class 'gluon.validators.ANY_OF'>, 'Auth': <class 'gluon.tools.Auth'>, 'B': <class 'gluon.html.B'>, 'BEAUTIFY': <class 'gluon.html.BEAUTIFY'>, 'BODY': <class 'gluon.html.BODY'>, 'BR': <class 'gluon.html.BR'>, 'BUTTON': <class 'gluon.html.BUTTON'>, 'CAT': <class 'gluon.html.CAT'>, 'CENTER': <class 'gluon.html.CENTER'>, ...}"
p67
sS'ccode'
p68
S'<code object <module> at 0x466a8b0, file "/home/...lications/SIRI_Time_Clock/models/db.py", line 12>'
p69
ssS'lnum'
p70
I212
sS'lines'
p71
(dp72
I207
S'    try:'
p73
sI208
S'        if isinstance(code, types.CodeType):'
p74
sI209
S'            ccode = code'
p75
sI210
S'        else:'
p76
sI211
S'            ccode = compile2(code, layer)'
p77
sI212
S'        exec ccode in environment'
p78
sI213
S'    except HTTP:'
p79
sI214
S'        raise'
p80
sI215
S'    except RestrictedError:'
p81
sI216
S'        # do not encapsulate (obfuscate) the original RestrictedError'
p82
ssS'call'
p83
S"(code='# -*- coding: utf-8 -*-\\n\\n#######################...nable auditing\\nauth.enable_record_versioning(db)\\n', environment={'A': <class 'gluon.html.A'>, 'ANY_OF': <class 'gluon.validators.ANY_OF'>, 'Auth': <class 'gluon.tools.Auth'>, 'B': <class 'gluon.html.B'>, 'BEAUTIFY': <class 'gluon.html.BEAUTIFY'>, 'BODY': <class 'gluon.html.BODY'>, 'BR': <class 'gluon.html.BR'>, 'BUTTON': <class 'gluon.html.BUTTON'>, 'CAT': <class 'gluon.html.CAT'>, 'CENTER': <class 'gluon.html.CENTER'>, ...}, layer='/home/evancaldwell/web2py/applications/SIRI_Time_Clock/models/db.py')"
p84
sS'func'
p85
S'restricted'
p86
sa(dp87
g62
S'/home/evancaldwell/web2py/applications/SIRI_Time_Clock/models/db.py'
p88
sg64
(dp89
S'hoursTest'
p90
S'undefined'
p91
sS'db'
p92
S'<DAL uri="sqlite://storage.sqlite">'
p93
sS'calcHours'
p94
g91
sS'db.timeclock.time_in'
p95
S'<gluon.dal.Field object>'
p96
sS'db.timeclock.time_out'
p97
S'<gluon.dal.Field object>'
p98
sS'db.timeclock'
p99
S'<Table timeclock (id,project,work_date,time_in,time_out,description,hours,usr_id)>'
p100
ssg70
I101
sg71
(dp101
I96
S'db.timeclock.description.requires = IS_NOT_EMPTY()'
p102
sI97
S'db.timeclock.hours.writable = db.timeclock.hours.readable = False'
p103
sI98
S'db.timeclock.usr_id.writable = db.timeclock.usr_id.readable = False'
p104
sI99
S'if auth.is_logged_in():'
p105
sI100
S'    db.timeclock.usr_id.default=auth.user.id'
p106
sI101
S'hoursTest = calcHours(db.timeclock.time_in, db.timeclock.time_out)'
p107
sI102
S'db.timeclock.hours.default=hoursTest'
p108
sI103
S''
sI104
S"db.define_table('fs_students',"
p109
sI105
S"Field('usr_id','reference auth_user'),"
p110
ssg83
S'()'
p111
sg85
S'<module>'
p112
sasS'pyver'
p113
S'Python 2.7.4: /usr/bin/uwsgi (prefix: /usr)'
p114
sS'session'
p115
g57
(S's\xeb\x08\x00\x00<div><table><tr><td style="font-weight:bold;vertical-align:top">auth</td><td valign="top">:</td><td><div><table><tr><td style="font-weight:bold;vertical-align:top">expiration</td><td valign="top">:</td><td><div>3600</div></td></tr><tr><td style="font-weight:bold;vertical-align:top">hmac_key</td><td valign="top">:</td><td><div>e6c7afb4-4dee-4d02-897b-9a6dfdbdfe3d</div></td></tr><tr><td style="font-weight:bold;vertical-align:top">last_visit</td><td valign="top">:</td><td><div>datetime.datetime(2013, 8, 9, 18, 55, 45, 345334)</div></td></tr><tr><td style="font-weight:bold;vertical-align:top">remember</td><td valign="top">:</td><td><div>False</div></td></tr><tr><td style="font-weight:bold;vertical-align:top">user</td><td valign="top">:</td><td><div><table><tr><td style="font-weight:bold;vertical-align:top">email</td><td valign="top">:</td><td><div>evancaldwell@yahoo.com</div></td></tr><tr><td style="font-weight:bold;vertical-align:top">first_name</td><td valign="top">:</td><td><div>Evan</div></td></tr><tr><td style="font-weight:bold;vertical-align:top">id</td><td valign="top">:</td><td><div>1L</div></td></tr><tr><td style="font-weight:bold;vertical-align:top">last_name</td><td valign="top">:</td><td><div>Caldwell</div></td></tr><tr><td style="font-weight:bold;vertical-align:top">registration_id</td><td valign="top">:</td><td><div></div></td></tr><tr><td style="font-weight:bold;vertical-align:top">registration_key</td><td valign="top">:</td><td><div></div></td></tr><tr><td style="font-weight:bold;vertical-align:top">reset_password_key</td><td valign="top">:</td><td><div></div></td></tr></table></div></td></tr><tr><td style="font-weight:bold;vertical-align:top">user_groups</td><td valign="top">:</td><td><div><table><tr><td style="font-weight:bold;vertical-align:top">1</td><td valign="top">:</td><td><div>user_1</div></td></tr></table></div></td></tr></table></div></td></tr><tr><td style="font-weight:bold;vertical-align:top">flash</td><td valign="top">:</td><td><div>None</div></td></tr><tr><td style="font-weight:bold;vertical-align:top">last_orderby</td><td valign="top">:</td><td><div>None</div></td></tr><tr><td style="font-weight:bold;vertical-align:top">last_query</td><td valign="top">:</td><td><div>db.timeclock.id&gt;0</div></td></tr></table></div>'
tRp116
sS'etype'
p117
S"<type 'exceptions.NameError'>"
p118
sS'date'
p119
S'Fri Aug  9 18:59:26 2013'
p120
sS'response'
p121
g57
(S's\xff\x11\x00\x00<div><table><tr><td style="font-weight:bold;vertical-align:top">body</td><td valign="top">:</td><td><div>&lt;cStringIO.StringO object at 0x4a82490&gt;</div></td></tr><tr><td style="font-weight:bold;vertical-align:top">cookies</td><td valign="top">:</td><td><div><table><tr><td style="font-weight:bold;vertical-align:top">session_id_siri_time_clock</td><td valign="top">:</td><td><div>192.225.182.66-f65f377f-77f3-4115-9cb5-95e12585d95b<table><tr><td style="font-weight:bold;vertical-align:top">comment</td><td valign="top">:</td><td><div></div></td></tr><tr><td style="font-weight:bold;vertical-align:top">domain</td><td valign="top">:</td><td><div></div></td></tr><tr><td style="font-weight:bold;vertical-align:top">expires</td><td valign="top">:</td><td><div></div></td></tr><tr><td style="font-weight:bold;vertical-align:top">httponly</td><td valign="top">:</td><td><div></div></td></tr><tr><td style="font-weight:bold;vertical-align:top">max-age</td><td valign="top">:</td><td><div></div></td></tr><tr><td style="font-weight:bold;vertical-align:top">path</td><td valign="top">:</td><td><div>/</div></td></tr><tr><td style="font-weight:bold;vertical-align:top">secure</td><td valign="top">:</td><td><div></div></td></tr><tr><td style="font-weight:bold;vertical-align:top">version</td><td valign="top">:</td><td><div></div></td></tr></table></div></td></tr></table></div></td></tr><tr><td style="font-weight:bold;vertical-align:top">delimiters</td><td valign="top">:</td><td><div><table><tr><td><div>{{</div></td></tr><tr><td><div>}}</div></td></tr></table></div></td></tr><tr><td style="font-weight:bold;vertical-align:top">files</td><td valign="top">:</td><td><div><table></table></div></td></tr><tr><td style="font-weight:bold;vertical-align:top">flash</td><td valign="top">:</td><td><div></div></td></tr><tr><td style="font-weight:bold;vertical-align:top">generic_patterns</td><td valign="top">:</td><td><div><table></table></div></td></tr><tr><td style="font-weight:bold;vertical-align:top">headers</td><td valign="top">:</td><td><div><table><tr><td style="font-weight:bold;vertical-align:top">X-Powered-By</td><td valign="top">:</td><td><div>web2py</div></td></tr></table></div></td></tr><tr><td style="font-weight:bold;vertical-align:top">menu</td><td valign="top">:</td><td><div><table></table></div></td></tr><tr><td style="font-weight:bold;vertical-align:top">meta</td><td valign="top">:</td><td><div><table></table></div></td></tr><tr><td style="font-weight:bold;vertical-align:top">models_to_run</td><td valign="top">:</td><td><div><table><tr><td><div>^\\w+\\.py$</div></td></tr><tr><td><div>^default/\\w+\\.py$</div></td></tr><tr><td><div>^default/mainpage/\\w+\\.py$</div></td></tr></table></div></td></tr><tr><td style="font-weight:bold;vertical-align:top">postprocessing</td><td valign="top">:</td><td><div><table></table></div></td></tr><tr><td style="font-weight:bold;vertical-align:top">session_cookie_expires</td><td valign="top">:</td><td><div>None</div></td></tr><tr><td style="font-weight:bold;vertical-align:top">session_data_name</td><td valign="top">:</td><td><div>session_data_siri_time_clock</div></td></tr><tr><td style="font-weight:bold;vertical-align:top">session_file</td><td valign="top">:</td><td><div>&lt;open file &#x27;/home/evancaldwell/web2py/applications/SIRI_Time_Clock/sessions/192.225.182.66-f65f377f-77f3-4115-9cb5-95e12585d95b&#x27;, mode &#x27;rb+&#x27; at 0x4df29c0&gt;</div></td></tr><tr><td style="font-weight:bold;vertical-align:top">session_filename</td><td valign="top">:</td><td><div>/home/evancaldwell/web2py/applications/SIRI_Time_Clock/sessions/192.225.182.66-f65f377f-77f3-4115-9cb5-95e12585d95b</div></td></tr><tr><td style="font-weight:bold;vertical-align:top">session_id</td><td valign="top">:</td><td><div>192.225.182.66-f65f377f-77f3-4115-9cb5-95e12585d95b</div></td></tr><tr><td style="font-weight:bold;vertical-align:top">session_id_name</td><td valign="top">:</td><td><div>session_id_siri_time_clock</div></td></tr><tr><td style="font-weight:bold;vertical-align:top">session_locked</td><td valign="top">:</td><td><div>True</div></td></tr><tr><td style="font-weight:bold;vertical-align:top">session_new</td><td valign="top">:</td><td><div>False</div></td></tr><tr><td style="font-weight:bold;vertical-align:top">session_storage_type</td><td valign="top">:</td><td><div>file</div></td></tr><tr><td style="font-weight:bold;vertical-align:top">status</td><td valign="top">:</td><td><div>200</div></td></tr><tr><td style="font-weight:bold;vertical-align:top">view</td><td valign="top">:</td><td><div>default/mainpage.html</div></td></tr></table></div>'
tRp122
sS'locals'
p123
(dp124
S'Service'
p125
S"<class 'gluon.tools.Service'>"
p126
sS'OBJECT'
p127
S"<class 'gluon.html.OBJECT'>"
p128
sS'SQLDB'
p129
S"<class 'gluon.dal.DAL'>"
p130
sg115
S"<Storage {'last_query': 'db.timeclock.id>0', '_u...ock/8]': 'e0aead62-5b1b-4d4f-8c39-5d5fb8b21972'}>"
p131
sS'LINK'
p132
S"<class 'gluon.html.LINK'>"
p133
sS'BR'
p134
S"<class 'gluon.html.BR'>"
p135
sS'local_import'
p136
S'<function <lambda>>'
p137
sS'OPTGROUP'
p138
S"<class 'gluon.html.OPTGROUP'>"
p139
sS'LI'
p140
S"<class 'gluon.html.LI'>"
p141
sS'PRE'
p142
S"<class 'gluon.html.PRE'>"
p143
sS'IS_INT_IN_RANGE'
p144
S"<class 'gluon.validators.IS_INT_IN_RANGE'>"
p145
sS'IS_LOWER'
p146
S"<class 'gluon.validators.IS_LOWER'>"
p147
sS'IS_STRONG'
p148
S"<class 'gluon.validators.IS_STRONG'>"
p149
sS'cache'
p150
S'<gluon.cache.Cache object>'
p151
sS'IS_IN_DB'
p152
S"<class 'gluon.validators.IS_IN_DB'>"
p153
sS'TAG'
p154
S'<gluon.html.__TAG__ object>'
p155
sS'SQLField'
p156
S"<class 'gluon.dal.Field'>"
p157
sS'mail'
p158
S'<gluon.tools.Mail object>'
p159
sS'BODY'
p160
S"<class 'gluon.html.BODY'>"
p161
sS'IS_DATE_IN_RANGE'
p162
S"<class 'gluon.validators.IS_DATE_IN_RANGE'>"
p163
sS'TH'
p164
S"<class 'gluon.html.TH'>"
p165
sS'URL'
p166
S'<function URL>'
p167
sS'__file__'
p168
S"'/home/evancaldwell/web2py/applications/SIRI_Time_Clock/models/db.py'"
p169
sS'db'
p170
S'<DAL uri="sqlite://storage.sqlite">'
p171
sS'auth'
p172
S'<gluon.tools.Auth object>'
p173
sS'P'
S"<class 'gluon.html.P'>"
p174
sS'TFOOT'
p175
S"<class 'gluon.html.TFOOT'>"
p176
sS'XHTML'
p177
S"<class 'gluon.html.XHTML'>"
p178
sS'datetime'
p179
S"<module 'datetime' from '/usr/lib/python2.7/lib-dynload/datetime.x86_64-linux-gnu.so'>"
p180
sS'ON'
p181
S'True'
p182
sS'OL'
p183
S"<class 'gluon.html.OL'>"
p184
sS'TEXTAREA'
p185
S"<class 'gluon.html.TEXTAREA'>"
p186
sS'MENU'
p187
S"<class 'gluon.html.MENU'>"
p188
sS'LOAD'
p189
S'<function LOAD>'
p190
sS'CODE'
p191
S"<class 'gluon.html.CODE'>"
p192
sS'HTTP'
p193
S"<class 'gluon.http.HTTP'>"
p194
sS'HR'
p195
S"<class 'gluon.html.HR'>"
p196
sS'IS_DATETIME'
p197
S"<class 'gluon.validators.IS_DATETIME'>"
p198
sS'HEAD'
p199
S"<class 'gluon.html.HEAD'>"
p200
sS'LABEL'
p201
S"<class 'gluon.html.LABEL'>"
p202
sS'CLEANUP'
p203
S"<class 'gluon.validators.CLEANUP'>"
p204
sS'plugins'
p205
S'<gluon.tools.PluginManager object>'
p206
sS'SELECT'
p207
S"<class 'gluon.html.SELECT'>"
p208
sS'use_janrain'
p209
S'<function use_janrain>'
p210
sS'CENTER'
p211
S"<class 'gluon.html.CENTER'>"
p212
sS'prettydate'
p213
S'<function prettydate>'
p214
sS'Crud'
p215
S"<class 'gluon.tools.Crud'>"
p216
sS'Auth'
p217
S"<class 'gluon.tools.Auth'>"
p218
sS'__builtins__'
p219
S"{'ArithmeticError': <type 'exceptions.ArithmeticError'>, 'AssertionError': <type 'exceptions.AssertionError'>, 'AttributeError': <type 'exceptions.AttributeError'>, 'BaseException': <type 'exceptions.BaseException'>, 'BufferError': <type 'exceptions.BufferError'>, 'BytesWarning': <type 'exceptions.BytesWarning'>, 'DeprecationWarning': <type 'exceptions.DeprecationWarning'>, 'EOFError': <type 'exceptions.EOFError'>, 'Ellipsis': Ellipsis, 'EnvironmentError': <type 'exceptions.EnvironmentError'>, ...}"
p220
sS'HTML'
p221
S"<class 'gluon.html.HTML'>"
p222
sS'SQLFORM'
p223
S"<class 'gluon.sqlhtml.SQLFORM'>"
p224
sS'EM'
p225
S"<class 'gluon.html.EM'>"
p226
sS'redirect'
p227
S'<function redirect>'
p228
sS'FIELDSET'
p229
S"<class 'gluon.html.FIELDSET'>"
p230
sS'IS_EQUAL_TO'
p231
S"<class 'gluon.validators.IS_EQUAL_TO'>"
p232
sS'embed64'
p233
S'<function embed64>'
p234
sS'IS_LIST_OF'
p235
S"<class 'gluon.validators.IS_LIST_OF'>"
p236
sS'__name__'
p237
S"'__restricted__'"
p238
sS'EMBED'
p239
S"<class 'gluon.html.EMBED'>"
p240
sS'FORM'
p241
S"<class 'gluon.html.FORM'>"
p242
sS'H2'
p243
S"<class 'gluon.html.H2'>"
p244
sS'H3'
p245
S"<class 'gluon.html.H3'>"
p246
sS'BUTTON'
p247
S"<class 'gluon.html.BUTTON'>"
p248
sS'H1'
p249
S"<class 'gluon.html.H1'>"
p250
sS'H6'
p251
S"<class 'gluon.html.H6'>"
p252
sS'H4'
p253
S"<class 'gluon.html.H4'>"
p254
sS'H5'
p255
S"<class 'gluon.html.H5'>"
p256
sS'UL'
p257
S"<class 'gluon.html.UL'>"
p258
sS'IS_UPPER'
p259
S"<class 'gluon.validators.IS_UPPER'>"
p260
sS'xmlescape'
p261
S'<function xmlescape>'
p262
sS'IS_TIME'
p263
S"<class 'gluon.validators.IS_TIME'>"
p264
sS'OPTION'
p265
S"<class 'gluon.html.OPTION'>"
p266
sS'TITLE'
p267
S"<class 'gluon.html.TITLE'>"
p268
sS'CRYPT'
p269
S"<class 'gluon.validators.CRYPT'>"
p270
sS'IS_EMPTY_OR'
p271
S"<class 'gluon.validators.IS_EMPTY_OR'>"
p272
sS'MARKMIN'
p273
S"<class 'gluon.html.MARKMIN'>"
p274
sS'INPUT'
p275
S"<class 'gluon.html.INPUT'>"
p276
sS'STRONG'
p277
S"<class 'gluon.html.STRONG'>"
p278
sS'COL'
p279
S"<class 'gluon.html.COL'>"
p280
sS'service'
p281
S'<gluon.tools.Service object>'
p282
sS'SCRIPT'
p283
S"<class 'gluon.html.SCRIPT'>"
p284
sS'TABLE'
p285
S"<class 'gluon.html.TABLE'>"
p286
sS'IS_IPV4'
p287
S"<class 'gluon.validators.IS_IPV4'>"
p288
sS'IS_LENGTH'
p289
S"<class 'gluon.validators.IS_LENGTH'>"
p290
sS'IS_IPV6'
p291
S"<class 'gluon.validators.IS_IPV6'>"
p292
sS'XML'
p293
S"<class 'gluon.html.XML'>"
p294
sS'B'
S"<class 'gluon.html.B'>"
p295
sS'IMG'
p296
S"<class 'gluon.html.IMG'>"
p297
sS'SQLTABLE'
p298
S"<class 'gluon.sqlhtml.SQLTABLE'>"
p299
sS'IS_MATCH'
p300
S"<class 'gluon.validators.IS_MATCH'>"
p301
sS'IS_ALPHANUMERIC'
p302
S"<class 'gluon.validators.IS_ALPHANUMERIC'>"
p303
sS'SPAN'
p304
S"<class 'gluon.html.SPAN'>"
p305
sS'IS_JSON'
p306
S"<class 'gluon.validators.IS_JSON'>"
p307
sS'IS_IPADDRESS'
p308
S"<class 'gluon.validators.IS_IPADDRESS'>"
p309
sS'IS_SLUG'
p310
S"<class 'gluon.validators.IS_SLUG'>"
p311
sS'BEAUTIFY'
p312
S"<class 'gluon.html.BEAUTIFY'>"
p313
sS'META'
p314
S"<class 'gluon.html.META'>"
p315
sS'IS_DATE'
p316
S"<class 'gluon.validators.IS_DATE'>"
p317
sS'IS_EMAIL'
p318
S"<class 'gluon.validators.IS_EMAIL'>"
p319
sS'IS_NOT_EMPTY'
p320
S"<class 'gluon.validators.IS_NOT_EMPTY'>"
p321
sS'IS_FLOAT_IN_RANGE'
p322
S"<class 'gluon.validators.IS_FLOAT_IN_RANGE'>"
p323
sS'TBODY'
p324
S"<class 'gluon.html.TBODY'>"
p325
sS'CAT'
p326
S"<class 'gluon.html.CAT'>"
p327
sS'Field'
p328
S"<class 'gluon.dal.Field'>"
p329
sS'DIV'
p330
S"<class 'gluon.html.DIV'>"
p331
sS'LEGEND'
p332
S"<class 'gluon.html.LEGEND'>"
p333
sS'COLGROUP'
p334
S"<class 'gluon.html.COLGROUP'>"
p335
sS'DAL'
p336
S"<class 'gluon.dal.DAL'>"
p337
sS'TT'
p338
S"<class 'gluon.html.TT'>"
p339
sS'TR'
p340
S"<class 'gluon.html.TR'>"
p341
sS'__package__'
p342
S'None'
p343
sS'IFRAME'
p344
S"<class 'gluon.html.IFRAME'>"
p345
sS'TD'
p346
S"<class 'gluon.html.TD'>"
p347
sS'PluginManager'
p348
S"<class 'gluon.tools.PluginManager'>"
p349
sS'IS_URL'
p350
S"<class 'gluon.validators.IS_URL'>"
p351
sS'A'
S"<class 'gluon.html.A'>"
p352
sS'STYLE'
p353
S"<class 'gluon.html.STYLE'>"
p354
sS'IS_DATETIME_IN_RANGE'
p355
S"<class 'gluon.validators.IS_DATETIME_IN_RANGE'>"
p356
sS'IS_IMAGE'
p357
S"<class 'gluon.validators.IS_IMAGE'>"
p358
sS'I'
S"<class 'gluon.html.I'>"
p359
sS'crud'
p360
S'<gluon.tools.Crud object>'
p361
sS'IS_NOT_IN_DB'
p362
S"<class 'gluon.validators.IS_NOT_IN_DB'>"
p363
sg121
S"<Storage {'body': <cStringIO.StringO object at 0... at 0x458ccf8>, 'view': 'default/mainpage.html'}>"
p364
sS'THEAD'
p365
S"<class 'gluon.html.THEAD'>"
p366
sS'ANY_OF'
p367
S"<class 'gluon.validators.ANY_OF'>"
p368
sS'IS_NULL_OR'
p369
S"<class 'gluon.validators.IS_EMPTY_OR'>"
p370
sg56
S"<Storage {'function': 'mainpage', 'body': <open ...e_out': '13:00:00', 'work_date': '2013-08-08'}>}>"
p371
sS'IS_EXPR'
p372
S"<class 'gluon.validators.IS_EXPR'>"
p373
sS'IS_IN_SET'
p374
S"<class 'gluon.validators.IS_IN_SET'>"
p375
sS'IS_UPLOAD_FILENAME'
p376
S"<class 'gluon.validators.IS_UPLOAD_FILENAME'>"
p377
sS'IS_DECIMAL_IN_RANGE'
p378
S"<class 'gluon.validators.IS_DECIMAL_IN_RANGE'>"
p379
sS'T'
S'<gluon.languages.translator object>'
p380
sssS'traceback'
p381
S'Traceback (most recent call last):\n  File "/home/evancaldwell/web2py/gluon/restricted.py", line 212, in restricted\n    exec ccode in environment\n  File "/home/evancaldwell/web2py/applications/SIRI_Time_Clock/models/db.py", line 101, in <module>\n    hoursTest = calcHours(db.timeclock.time_in, db.timeclock.time_out)\nNameError: name \'calcHours\' is not defined\n'
p382
s.